; ModuleID = '6/2475.c'
source_filename = "6/2475.c"
target datalayout = "e-m:e-p270:32:32-p271:32:32-p272:64:64-i64:64-f80:128-n8:16:32:64-S128"
target triple = "x86_64-pc-linux-gnu"

@.str = private unnamed_addr constant [3 x i8] c"%d\00", align 1
@.str.1 = private unnamed_addr constant [6 x i8] c"%d %d\00", align 1
@.str.2 = private unnamed_addr constant [4 x i8] c"%d\0A\00", align 1

; Function Attrs: noinline nounwind uwtable
define dso_local i32 @main() #0 {
  %1 = alloca i32, align 4
  %2 = alloca i32, align 4
  %3 = alloca i32, align 4
  %4 = alloca i32, align 4
  %5 = alloca i32, align 4
  %6 = alloca i32, align 4
  %7 = alloca i32, align 4
  %8 = alloca i32, align 4
  %9 = alloca [100 x [100 x i32]], align 16
  %10 = alloca i32*, align 8
  store i32 0, i32* %1, align 4
  %11 = call i32 (i8*, ...) @__isoc99_scanf(i8* getelementptr inbounds ([3 x i8], [3 x i8]* @.str, i64 0, i64 0), i32* %2)
  store i32 1, i32* %3, align 4
  br label %12

12:                                               ; preds = %71, %0
  %13 = load i32, i32* %3, align 4
  %14 = load i32, i32* %2, align 4
  %15 = icmp sle i32 %13, %14
  br i1 %15, label %16, label %74

16:                                               ; preds = %12
  store i32 0, i32* %8, align 4
  %17 = call i32 (i8*, ...) @__isoc99_scanf(i8* getelementptr inbounds ([6 x i8], [6 x i8]* @.str.1, i64 0, i64 0), i32* %5, i32* %4)
  store i32 0, i32* %7, align 4
  br label %18

18:                                               ; preds = %65, %16
  %19 = load i32, i32* %7, align 4
  %20 = load i32, i32* %5, align 4
  %21 = icmp slt i32 %19, %20
  br i1 %21, label %22, label %68

22:                                               ; preds = %18
  %23 = load i32, i32* %7, align 4
  %24 = sext i32 %23 to i64
  %25 = getelementptr inbounds [100 x [100 x i32]], [100 x [100 x i32]]* %9, i64 0, i64 %24
  %26 = getelementptr inbounds [100 x i32], [100 x i32]* %25, i64 0, i64 0
  store i32* %26, i32** %10, align 8
  store i32 0, i32* %6, align 4
  br label %27

27:                                               ; preds = %61, %22
  %28 = load i32, i32* %6, align 4
  %29 = load i32, i32* %4, align 4
  %30 = icmp slt i32 %28, %29
  br i1 %30, label %31, label %64

31:                                               ; preds = %27
  %32 = load i32*, i32** %10, align 8
  %33 = load i32, i32* %6, align 4
  %34 = sext i32 %33 to i64
  %35 = getelementptr inbounds i32, i32* %32, i64 %34
  %36 = call i32 (i8*, ...) @__isoc99_scanf(i8* getelementptr inbounds ([3 x i8], [3 x i8]* @.str, i64 0, i64 0), i32* %35)
  %37 = load i32, i32* %7, align 4
  %38 = icmp eq i32 %37, 0
  br i1 %38, label %52, label %39

39:                                               ; preds = %31
  %40 = load i32, i32* %7, align 4
  %41 = load i32, i32* %5, align 4
  %42 = sub nsw i32 %41, 1
  %43 = icmp eq i32 %40, %42
  br i1 %43, label %52, label %44

44:                                               ; preds = %39
  %45 = load i32, i32* %6, align 4
  %46 = icmp eq i32 %45, 0
  br i1 %46, label %52, label %47

47:                                               ; preds = %44
  %48 = load i32, i32* %6, align 4
  %49 = load i32, i32* %4, align 4
  %50 = sub nsw i32 %49, 1
  %51 = icmp eq i32 %48, %50
  br i1 %51, label %52, label %60

52:                                               ; preds = %47, %44, %39, %31
  %53 = load i32, i32* %8, align 4
  %54 = load i32*, i32** %10, align 8
  %55 = load i32, i32* %6, align 4
  %56 = sext i32 %55 to i64
  %57 = getelementptr inbounds i32, i32* %54, i64 %56
  %58 = load i32, i32* %57, align 4
  %59 = add nsw i32 %53, %58
  store i32 %59, i32* %8, align 4
  br label %60

60:                                               ; preds = %52, %47
  br label %61

61:                                               ; preds = %60
  %62 = load i32, i32* %6, align 4
  %63 = add nsw i32 %62, 1
  store i32 %63, i32* %6, align 4
  br label %27

64:                                               ; preds = %27
  br label %65

65:                                               ; preds = %64
  %66 = load i32, i32* %7, align 4
  %67 = add nsw i32 %66, 1
  store i32 %67, i32* %7, align 4
  br label %18

68:                                               ; preds = %18
  %69 = load i32, i32* %8, align 4
  %70 = call i32 (i8*, ...) @printf(i8* getelementptr inbounds ([4 x i8], [4 x i8]* @.str.2, i64 0, i64 0), i32 %69)
  br label %71

71:                                               ; preds = %68
  %72 = load i32, i32* %3, align 4
  %73 = add nsw i32 %72, 1
  store i32 %73, i32* %3, align 4
  br label %12

74:                                               ; preds = %12
  ret i32 0
}

declare dso_local i32 @__isoc99_scanf(i8*, ...) #1

declare dso_local i32 @printf(i8*, ...) #1


!llvm.module.flags = !{!0}
!llvm.ident = !{!1}

!0 = !{i32 1, !"wchar_size", i32 4}
!1 = !{!"clang version 10.0.0-4ubuntu1 "}
